; Function Attrs: mustprogress uwtable
define hidden noundef zeroext i1 @_ZN4cvc58internal6theory9datatypes15TheoryDatatypes8hasLabelEPNS3_7EqcInfoENS0_12NodeTemplateILb1EEE(ptr noundef nonnull align 8 dereferenceable(2000) %0, ptr noundef readonly captures(address_is_null) %1, ptr noundef readonly captures(none) %2) local_unnamed_addr #3 align 2 personality ptr @__gxx_personality_v0 {
  %4 = alloca %"class.cvc5::internal::NodeTemplate", align 8
  %5 = alloca %"class.cvc5::internal::NodeTemplate", align 8
  %.not = icmp eq ptr %1, null
  br i1 %.not, label %21, label %6

6:                                                ; preds = %3
  %7 = getelementptr inbounds nuw i8, ptr %1, i64 88
  %8 = load ptr, ptr %7, align 8, !tbaa !53
  %9 = load atomic i8, ptr @_ZGVZN4cvc58internal4expr9NodeValue4nullEvE6s_null acquire, align 8
  %10 = icmp eq i8 %9, 0
  br i1 %10, label %11, label %_ZNK4cvc58internal12NodeTemplateILb1EE6isNullEv.exit, !prof !50

11:                                               ; preds = %6
  %12 = tail call i32 @__cxa_guard_acquire(ptr nonnull @_ZGVZN4cvc58internal4expr9NodeValue4nullEvE6s_null) #26
  %.not.i.i = icmp eq i32 %12, 0
  br i1 %.not.i.i, label %_ZNK4cvc58internal12NodeTemplateILb1EE6isNullEv.exit, label %13

13:                                               ; preds = %11
  %14 = invoke noalias noundef nonnull dereferenceable(24) ptr @_Znwm(i64 noundef 24) #27
          to label %15 unwind label %17

15:                                               ; preds = %13
  store i64 1152920405095219200, ptr %14, align 8
  %16 = getelementptr inbounds nuw i8, ptr %14, i64 8
  tail call void @llvm.memset.p0.i64(ptr noundef nonnull align 8 dereferenceable(16) %16, i8 0, i64 16, i1 false)
  store ptr %14, ptr @_ZZN4cvc58internal4expr9NodeValue4nullEvE6s_null, align 8, !tbaa !51
  tail call void @__cxa_guard_release(ptr nonnull @_ZGVZN4cvc58internal4expr9NodeValue4nullEvE6s_null) #26
  br label %_ZNK4cvc58internal12NodeTemplateILb1EE6isNullEv.exit

common.resume:                                    ; preds = %79, %17
  %common.resume.op = phi { ptr, i32 } [ %18, %17 ], [ %.pn, %79 ]
  resume { ptr, i32 } %common.resume.op

17:                                               ; preds = %13
  %18 = landingpad { ptr, i32 }
          cleanup
  tail call void @__cxa_guard_abort(ptr nonnull @_ZGVZN4cvc58internal4expr9NodeValue4nullEvE6s_null) #26
  br label %common.resume

_ZNK4cvc58internal12NodeTemplateILb1EE6isNullEv.exit: ; preds = %6, %11, %15
  %19 = load ptr, ptr @_ZZN4cvc58internal4expr9NodeValue4nullEvE6s_null, align 8, !tbaa !51
  %20 = icmp eq ptr %8, %19
  br i1 %20, label %21, label %.critedge17

21:                                               ; preds = %_ZNK4cvc58internal12NodeTemplateILb1EE6isNullEv.exit, %3
  call void @llvm.lifetime.start.p0(i64 8, ptr nonnull %4) #26
  %22 = load ptr, ptr %2, align 8, !tbaa !53
  store ptr %22, ptr %5, align 8, !tbaa !53
  %23 = load i64, ptr %22, align 8
  %24 = lshr i64 %23, 40
  %25 = trunc nuw nsw i64 %24 to i32
  %26 = and i32 %25, 1048575
  %27 = icmp samesign ult i32 %26, 1048574
  br i1 %27, label %28, label %33, !prof !80

28:                                               ; preds = %21
  %29 = add i64 %23, 1099511627776
  %30 = and i64 %29, 1152920405095219200
  %31 = and i64 %23, -1152920405095219201
  %32 = or disjoint i64 %30, %31
  store i64 %32, ptr %22, align 8
  br label %_ZN4cvc58internal12NodeTemplateILb1EEC2ERKS2_.exit

33:                                               ; preds = %21
  %34 = icmp eq i32 %26, 1048574
  br i1 %34, label %35, label %_ZN4cvc58internal12NodeTemplateILb1EEC2ERKS2_.exit, !prof !79

35:                                               ; preds = %33
  %36 = or i64 %23, 1152920405095219200
  store i64 %36, ptr %22, align 8
  tail call void @_ZN4cvc58internal4expr9NodeValue20markRefCountMaxedOutEv(ptr noundef nonnull align 8 dereferenceable(24) %22)
  br label %_ZN4cvc58internal12NodeTemplateILb1EEC2ERKS2_.exit

_ZN4cvc58internal12NodeTemplateILb1EEC2ERKS2_.exit: ; preds = %28, %33, %35
  invoke void @_ZN4cvc58internal6theory9datatypes15TheoryDatatypes8getLabelENS0_12NodeTemplateILb1EEE(ptr dead_on_unwind nonnull writable sret(%"class.cvc5::internal::NodeTemplate") align 8 %4, ptr noundef nonnull align 8 dereferenceable(2000) %0, ptr noundef nonnull %5)
          to label %37 unwind label %77

37:                                               ; preds = %_ZN4cvc58internal12NodeTemplateILb1EEC2ERKS2_.exit
  %38 = load ptr, ptr %4, align 8, !tbaa !53
  %39 = load atomic i8, ptr @_ZGVZN4cvc58internal4expr9NodeValue4nullEvE6s_null acquire, align 8
  %40 = icmp eq i8 %39, 0
  br i1 %40, label %41, label %.critedge, !prof !50

41:                                               ; preds = %37
  %42 = call i32 @__cxa_guard_acquire(ptr nonnull @_ZGVZN4cvc58internal4expr9NodeValue4nullEvE6s_null) #26
  %.not.i.i18 = icmp eq i32 %42, 0
  br i1 %.not.i.i18, label %.critedge, label %43

43:                                               ; preds = %41
  %44 = invoke noalias noundef nonnull dereferenceable(24) ptr @_Znwm(i64 noundef 24) #27
          to label %45 unwind label %.body

45:                                               ; preds = %43
  store i64 1152920405095219200, ptr %44, align 8
  %46 = getelementptr inbounds nuw i8, ptr %44, i64 8
  call void @llvm.memset.p0.i64(ptr noundef nonnull align 8 dereferenceable(16) %46, i8 0, i64 16, i1 false)
  store ptr %44, ptr @_ZZN4cvc58internal4expr9NodeValue4nullEvE6s_null, align 8, !tbaa !51
  call void @__cxa_guard_release(ptr nonnull @_ZGVZN4cvc58internal4expr9NodeValue4nullEvE6s_null) #26
  br label %.critedge

.body:                                            ; preds = %43
  %47 = landingpad { ptr, i32 }
          cleanup
  call void @__cxa_guard_abort(ptr nonnull @_ZGVZN4cvc58internal4expr9NodeValue4nullEvE6s_null) #26
  call void @_ZN4cvc58internal12NodeTemplateILb1EED2Ev(ptr noundef nonnull align 8 dereferenceable(8) %4) #26
  br label %79

.critedge:                                        ; preds = %37, %41, %45
  %48 = load ptr, ptr @_ZZN4cvc58internal4expr9NodeValue4nullEvE6s_null, align 8, !tbaa !51
  %49 = icmp ne ptr %38, %48
  %50 = load ptr, ptr %4, align 8, !tbaa !53
  %51 = load i64, ptr %50, align 8
  %52 = and i64 %51, 1152920405095219200
  %.not.i.i20 = icmp eq i64 %52, 1152920405095219200
  br i1 %.not.i.i20, label %_ZN4cvc58internal12NodeTemplateILb1EED2Ev.exit, label %53, !prof !79

53:                                               ; preds = %.critedge
  %54 = add i64 %51, 1152920405095219200
  %55 = and i64 %54, 1152920405095219200
  %56 = and i64 %51, -1152920405095219201
  %57 = or disjoint i64 %55, %56
  store i64 %57, ptr %50, align 8
  %58 = icmp eq i64 %55, 0
  br i1 %58, label %59, label %_ZN4cvc58internal12NodeTemplateILb1EED2Ev.exit, !prof !79

59:                                               ; preds = %53
  invoke void @_ZN4cvc58internal4expr9NodeValue15markForDeletionEv(ptr noundef nonnull align 8 dereferenceable(24) %50)
          to label %_ZN4cvc58internal12NodeTemplateILb1EED2Ev.exit unwind label %60

60:                                               ; preds = %59
  %61 = landingpad { ptr, i32 }
          catch ptr null
  %62 = extractvalue { ptr, i32 } %61, 0
  call void @__clang_call_terminate(ptr %62) #28
  unreachable

_ZN4cvc58internal12NodeTemplateILb1EED2Ev.exit:   ; preds = %.critedge, %53, %59
  %63 = load ptr, ptr %5, align 8, !tbaa !53
  %64 = load i64, ptr %63, align 8
  %65 = and i64 %64, 1152920405095219200
  %.not.i.i21 = icmp eq i64 %65, 1152920405095219200
  br i1 %.not.i.i21, label %_ZN4cvc58internal12NodeTemplateILb1EED2Ev.exit22, label %66, !prof !79

66:                                               ; preds = %_ZN4cvc58internal12NodeTemplateILb1EED2Ev.exit
  %67 = add i64 %64, 1152920405095219200
  %68 = and i64 %67, 1152920405095219200
  %69 = and i64 %64, -1152920405095219201
  %70 = or disjoint i64 %68, %69
  store i64 %70, ptr %63, align 8
  %71 = icmp eq i64 %68, 0
  br i1 %71, label %72, label %_ZN4cvc58internal12NodeTemplateILb1EED2Ev.exit22, !prof !79

72:                                               ; preds = %66
  invoke void @_ZN4cvc58internal4expr9NodeValue15markForDeletionEv(ptr noundef nonnull align 8 dereferenceable(24) %63)
          to label %_ZN4cvc58internal12NodeTemplateILb1EED2Ev.exit22 unwind label %73

73:                                               ; preds = %72
  %74 = landingpad { ptr, i32 }
          catch ptr null
  %75 = extractvalue { ptr, i32 } %74, 0
  call void @__clang_call_terminate(ptr %75) #28
  unreachable

_ZN4cvc58internal12NodeTemplateILb1EED2Ev.exit22: ; preds = %_ZN4cvc58internal12NodeTemplateILb1EED2Ev.exit, %66, %72
  call void @llvm.lifetime.end.p0(i64 8, ptr nonnull %4) #26
  br label %.critedge17

.critedge17:                                      ; preds = %_ZNK4cvc58internal12NodeTemplateILb1EE6isNullEv.exit, %_ZN4cvc58internal12NodeTemplateILb1EED2Ev.exit22
  %76 = phi i1 [ %49, %_ZN4cvc58internal12NodeTemplateILb1EED2Ev.exit22 ], [ true, %_ZNK4cvc58internal12NodeTemplateILb1EE6isNullEv.exit ]
  ret i1 %76

77:                                               ; preds = %_ZN4cvc58internal12NodeTemplateILb1EEC2ERKS2_.exit
  %78 = landingpad { ptr, i32 }
          cleanup
  br label %79

79:                                               ; preds = %77, %.body
  %.pn = phi { ptr, i32 } [ %47, %.body ], [ %78, %77 ]
  call void @_ZN4cvc58internal12NodeTemplateILb1EED2Ev(ptr noundef nonnull align 8 dereferenceable(8) %5) #26
  call void @llvm.lifetime.end.p0(i64 8, ptr nonnull %4) #26
  br label %common.resume
}